target datalayout = "e-m:e-p270:32:32-p271:32:32-p272:64:64-i64:64-i128:128-f80:128-n8:16:32:64-S128"
target triple = "x86_64-unknown-linux-gnu"

; Function Attrs: nounwind uwtable
define dso_local i32 @dictExpandAllowed(i64 noundef %moreMem, double noundef %usedRatio) #0 {
entry:
  %retval = alloca i32, align 4
  %moreMem.addr = alloca i64, align 8
  %usedRatio.addr = alloca double, align 8
  store i64 %moreMem, ptr %moreMem.addr, align 8
  store double %usedRatio, ptr %usedRatio.addr, align 8
  %0 = load double, ptr %usedRatio.addr, align 8
  %cmp = fcmp ole double %0, 1.618000e+00
  br i1 %cmp, label %if.then, label %if.else

if.then:                                          ; preds = %entry
  %1 = load i64, ptr %moreMem.addr, align 8
  %call = call i32 @overMaxmemoryAfterAlloc(i64 noundef %1)
  %tobool = icmp ne i32 %call, 0
  %lnot = xor i1 %tobool, true
  %lnot.ext = zext i1 %lnot to i32
  store i32 %lnot.ext, ptr %retval, align 4
  br label %return

if.else:                                          ; preds = %entry
  store i32 1, ptr %retval, align 4
  br label %return

return:                                           ; preds = %if.else, %if.then
  %2 = load i32, ptr %retval, align 4
  ret i32 %2
}