; Function Attrs: nounwind uwtable
define dso_local i32 @dictExpandAllowed(i64 noundef %moreMem, double noundef %usedRatio) #0 {
entry:
  %cmp = fcmp ugt double %usedRatio, 1.618000e+00
  br i1 %cmp, label %return, label %if.then

if.then:                                          ; preds = %entry
  %call = tail call i32 @overMaxmemoryAfterAlloc(i64 noundef %moreMem) #38
  %tobool.not = icmp eq i32 %call, 0
  %lnot.ext = zext i1 %tobool.not to i32
  br label %return

return:                                           ; preds = %entry, %if.then
  %retval.0 = phi i32 [ %lnot.ext, %if.then ], [ 1, %entry ]
  ret i32 %retval.0
}